target datalayout = "e-m:e-p270:32:32-p271:32:32-p272:64:64-i64:64-i128:128-f80:128-n8:16:32:64-S128"
target triple = "x86_64-pc-linux-gnu"

@.str.3 = private unnamed_addr constant [9 x i8] c"common.c\00", align 1
@__func__.str_tolower = private unnamed_addr constant [12 x i8] c"str_tolower\00", align 1

; Function Attrs: inlinehint nounwind willreturn memory(read) uwtable
define available_externally i32 @tolower(i32 noundef %0) #10 {
  %2 = alloca i32, align 4
  store i32 %0, ptr %2, align 4
  %3 = load i32, ptr %2, align 4
  %4 = icmp sge i32 %3, -128
  br i1 %4, label %5, label %15

5:                                                ; preds = %1
  %6 = load i32, ptr %2, align 4
  %7 = icmp slt i32 %6, 256
  br i1 %7, label %8, label %15

8:                                                ; preds = %5
  %9 = call ptr @__ctype_tolower_loc() #12
  %10 = load ptr, ptr %9, align 8
  %11 = load i32, ptr %2, align 4
  %12 = sext i32 %11 to i64
  %13 = getelementptr inbounds i32, ptr %10, i64 %12
  %14 = load i32, ptr %13, align 4
  br label %17

15:                                               ; preds = %5, %1
  %16 = load i32, ptr %2, align 4
  br label %17

17:                                               ; preds = %15, %8
  %18 = phi i32 [ %14, %8 ], [ %16, %15 ]
  ret i32 %18
}

; Function Attrs: nounwind uwtable
define dso_local ptr @str_tolower(ptr noundef %0) #0 {
  %2 = alloca ptr, align 8
  %3 = alloca i32, align 4
  %4 = alloca ptr, align 8
  %5 = alloca i32, align 4
  %6 = alloca i32, align 4
  %7 = alloca i32, align 4
  store ptr %0, ptr %2, align 8
  call void @llvm.lifetime.start.p0(i64 4, ptr %3) #11
  %8 = load ptr, ptr %2, align 8
  %9 = call i64 @strlen(ptr noundef %8) #13
  %10 = add i64 %9, 1
  %11 = trunc i64 %10 to i32
  store i32 %11, ptr %3, align 4
  call void @llvm.lifetime.start.p0(i64 8, ptr %4) #11
  %12 = load i32, ptr %3, align 4
  %13 = sext i32 %12 to i64
  %14 = call ptr @slurm_xcalloc(i64 noundef 1, i64 noundef %13, i1 noundef zeroext true, i1 noundef zeroext false, ptr noundef @.str.3, i32 noundef 1790, ptr noundef @__func__.str_tolower)
  store ptr %14, ptr %4, align 8
  store i32 0, ptr %3, align 4
  br label %15

15:                                               ; preds = %69, %1
  %16 = load ptr, ptr %2, align 8
  %17 = load i32, ptr %3, align 4
  %18 = sext i32 %17 to i64
  %19 = getelementptr inbounds i8, ptr %16, i64 %18
  %20 = load i8, ptr %19, align 1
  %21 = icmp ne i8 %20, 0
  br i1 %21, label %22, label %72

22:                                               ; preds = %15
  call void @llvm.lifetime.start.p0(i64 4, ptr %5) #11
  %23 = load ptr, ptr %2, align 8
  %24 = load i32, ptr %3, align 4
  %25 = sext i32 %24 to i64
  %26 = getelementptr inbounds i8, ptr %23, i64 %25
  %27 = load i8, ptr %26, align 1
  %28 = sext i8 %27 to i32
  %29 = call i1 @llvm.is.constant.i32(i32 %28)
  br i1 %29, label %30, label %53

30:                                               ; preds = %22
  call void @llvm.lifetime.start.p0(i64 4, ptr %6) #11
  %31 = load ptr, ptr %2, align 8
  %32 = load i32, ptr %3, align 4
  %33 = sext i32 %32 to i64
  %34 = getelementptr inbounds i8, ptr %31, i64 %33
  %35 = load i8, ptr %34, align 1
  %36 = sext i8 %35 to i32
  store i32 %36, ptr %6, align 4
  %37 = load i32, ptr %6, align 4
  %38 = icmp slt i32 %37, -128
  br i1 %38, label %42, label %39

39:                                               ; preds = %30
  %40 = load i32, ptr %6, align 4
  %41 = icmp sgt i32 %40, 255
  br i1 %41, label %42, label %44

42:                                               ; preds = %39, %30
  %43 = load i32, ptr %6, align 4
  br label %51

44:                                               ; preds = %39
  %45 = call ptr @__ctype_tolower_loc() #12
  %46 = load ptr, ptr %45, align 8
  %47 = load i32, ptr %6, align 4
  %48 = sext i32 %47 to i64
  %49 = getelementptr inbounds i32, ptr %46, i64 %48
  %50 = load i32, ptr %49, align 4
  br label %51

51:                                               ; preds = %44, %42
  %52 = phi i32 [ %43, %42 ], [ %50, %44 ]
  store i32 %52, ptr %5, align 4
  call void @llvm.lifetime.end.p0(i64 4, ptr %6) #11
  br label %61

53:                                               ; preds = %22
  %54 = load ptr, ptr %2, align 8
  %55 = load i32, ptr %3, align 4
  %56 = sext i32 %55 to i64
  %57 = getelementptr inbounds i8, ptr %54, i64 %56
  %58 = load i8, ptr %57, align 1
  %59 = sext i8 %58 to i32
  %60 = call i32 @tolower(i32 noundef %59) #13
  store i32 %60, ptr %5, align 4
  br label %61

61:                                               ; preds = %53, %51
  %62 = load i32, ptr %5, align 4
  store i32 %62, ptr %7, align 4
  call void @llvm.lifetime.end.p0(i64 4, ptr %5) #11
  %63 = load i32, ptr %7, align 4
  %64 = trunc i32 %63 to i8
  %65 = load ptr, ptr %4, align 8
  %66 = load i32, ptr %3, align 4
  %67 = sext i32 %66 to i64
  %68 = getelementptr inbounds i8, ptr %65, i64 %67
  store i8 %64, ptr %68, align 1
  br label %69

69:                                               ; preds = %61
  %70 = load i32, ptr %3, align 4
  %71 = add nsw i32 %70, 1
  store i32 %71, ptr %3, align 4
  br label %15, !llvm.loop !49

72:                                               ; preds = %15
  %73 = load ptr, ptr %4, align 8
  call void @llvm.lifetime.end.p0(i64 8, ptr %4) #11
  call void @llvm.lifetime.end.p0(i64 4, ptr %3) #11
  ret ptr %73
}