; Function Attrs: nounwind uwtable
define dso_local ptr @str_tolower(ptr noundef readonly captures(none) %0) local_unnamed_addr #2 {
  %2 = tail call i64 @strlen(ptr noundef nonnull dereferenceable(1) %0) #18
  %3 = shl i64 %2, 32
  %sext = add i64 %3, 4294967296
  %4 = ashr exact i64 %sext, 32
  %5 = tail call ptr @slurm_xcalloc(i64 noundef 1, i64 noundef %4, i1 noundef zeroext true, i1 noundef zeroext false, ptr noundef nonnull @.str.3, i32 noundef 1790, ptr noundef nonnull @__func__.str_tolower) #16
  %6 = load i8, ptr %0, align 1
  %.not22 = icmp eq i8 %6, 0
  br i1 %.not22, label %._crit_edge, label %.lr.ph.preheader

.lr.ph.preheader:                                 ; preds = %1
  %7 = tail call ptr @__ctype_tolower_loc() #17
  br label %.lr.ph

.lr.ph:                                           ; preds = %.lr.ph.preheader, %.lr.ph
  %indvars.iv = phi i64 [ %indvars.iv.next, %.lr.ph ], [ 0, %.lr.ph.preheader ]
  %8 = phi i8 [ %15, %.lr.ph ], [ %6, %.lr.ph.preheader ]
  %9 = load ptr, ptr %7, align 8
  %10 = sext i8 %8 to i64
  %11 = getelementptr inbounds i32, ptr %9, i64 %10
  %.020 = load i32, ptr %11, align 4
  %12 = trunc i32 %.020 to i8
  %13 = getelementptr inbounds nuw i8, ptr %5, i64 %indvars.iv
  store i8 %12, ptr %13, align 1
  %indvars.iv.next = add nuw nsw i64 %indvars.iv, 1
  %14 = getelementptr inbounds nuw i8, ptr %0, i64 %indvars.iv.next
  %15 = load i8, ptr %14, align 1
  %.not = icmp eq i8 %15, 0
  br i1 %.not, label %._crit_edge, label %.lr.ph, !llvm.loop !47

._crit_edge:                                      ; preds = %.lr.ph, %1
  ret ptr %5
}